#include <math.h>
#include <stdio.h>
#include <stdlib.h>
#include <string.h>

main()
{
      int c,d,e,f,g;
      scanf("%d%d",&c,&d);
      int a[c],b[d];
      for(e=0;e<c;e++)
      scanf("%d",&a[e]);
      for(e=0;e<d;e++)
      scanf("%d",&b[e]);
      for(f=0;f<c-1;f++)
      for(e=0;e<c-1;e++)
      if(a[e]>a[e+1])
      {
                     g=a[e];
                     a[e]=a[e+1];
                     a[e+1]=g;
                     }
      printf("%d",a[0]);
      for(e=1;e<c;e++)
      printf(" %d",a[e]);
      for(f=0;f<d-1;f++)
      for(e=0;e<d-1;e++)
      if(b[e]>b[e+1])
      {
                     g=b[e];
                     b[e]=b[e+1];
                     b[e+1]=g;
                     }
      for(e=0;e<d;e++)
      printf(" %d",b[e]);
      }