; ModuleID = '8/1111.c'
source_filename = "8/1111.c"
target datalayout = "e-m:e-p270:32:32-p271:32:32-p272:64:64-i64:64-f80:128-n8:16:32:64-S128"
target triple = "x86_64-pc-linux-gnu"

@.str = private unnamed_addr constant [5 x i8] c"%d%d\00", align 1
@.str.1 = private unnamed_addr constant [3 x i8] c"%d\00", align 1
@.str.2 = private unnamed_addr constant [4 x i8] c" %d\00", align 1

; Function Attrs: noinline nounwind uwtable
define dso_local i32 @main() #0 {
  %1 = alloca i32, align 4
  %2 = alloca i32, align 4
  %3 = alloca i32, align 4
  %4 = alloca i32, align 4
  %5 = alloca i32, align 4
  %6 = alloca i32, align 4
  %7 = alloca i8*, align 8
  %8 = alloca i64, align 8
  %9 = alloca i64, align 8
  store i32 0, i32* %1, align 4
  %10 = call i32 (i8*, ...) @__isoc99_scanf(i8* getelementptr inbounds ([5 x i8], [5 x i8]* @.str, i64 0, i64 0), i32* %2, i32* %3)
  %11 = load i32, i32* %2, align 4
  %12 = zext i32 %11 to i64
  %13 = call i8* @llvm.stacksave()
  store i8* %13, i8** %7, align 8
  %14 = alloca i32, i64 %12, align 16
  store i64 %12, i64* %8, align 8
  %15 = load i32, i32* %3, align 4
  %16 = zext i32 %15 to i64
  %17 = alloca i32, i64 %16, align 16
  store i64 %16, i64* %9, align 8
  store i32 0, i32* %4, align 4
  br label %18

18:                                               ; preds = %27, %0
  %19 = load i32, i32* %4, align 4
  %20 = load i32, i32* %2, align 4
  %21 = icmp slt i32 %19, %20
  br i1 %21, label %22, label %30

22:                                               ; preds = %18
  %23 = load i32, i32* %4, align 4
  %24 = sext i32 %23 to i64
  %25 = getelementptr inbounds i32, i32* %14, i64 %24
  %26 = call i32 (i8*, ...) @__isoc99_scanf(i8* getelementptr inbounds ([3 x i8], [3 x i8]* @.str.1, i64 0, i64 0), i32* %25)
  br label %27

27:                                               ; preds = %22
  %28 = load i32, i32* %4, align 4
  %29 = add nsw i32 %28, 1
  store i32 %29, i32* %4, align 4
  br label %18

30:                                               ; preds = %18
  store i32 0, i32* %4, align 4
  br label %31

31:                                               ; preds = %40, %30
  %32 = load i32, i32* %4, align 4
  %33 = load i32, i32* %3, align 4
  %34 = icmp slt i32 %32, %33
  br i1 %34, label %35, label %43

35:                                               ; preds = %31
  %36 = load i32, i32* %4, align 4
  %37 = sext i32 %36 to i64
  %38 = getelementptr inbounds i32, i32* %17, i64 %37
  %39 = call i32 (i8*, ...) @__isoc99_scanf(i8* getelementptr inbounds ([3 x i8], [3 x i8]* @.str.1, i64 0, i64 0), i32* %38)
  br label %40

40:                                               ; preds = %35
  %41 = load i32, i32* %4, align 4
  %42 = add nsw i32 %41, 1
  store i32 %42, i32* %4, align 4
  br label %31

43:                                               ; preds = %31
  store i32 0, i32* %5, align 4
  br label %44

44:                                               ; preds = %89, %43
  %45 = load i32, i32* %5, align 4
  %46 = load i32, i32* %2, align 4
  %47 = sub nsw i32 %46, 1
  %48 = icmp slt i32 %45, %47
  br i1 %48, label %49, label %92

49:                                               ; preds = %44
  store i32 0, i32* %4, align 4
  br label %50

50:                                               ; preds = %85, %49
  %51 = load i32, i32* %4, align 4
  %52 = load i32, i32* %2, align 4
  %53 = sub nsw i32 %52, 1
  %54 = icmp slt i32 %51, %53
  br i1 %54, label %55, label %88

55:                                               ; preds = %50
  %56 = load i32, i32* %4, align 4
  %57 = sext i32 %56 to i64
  %58 = getelementptr inbounds i32, i32* %14, i64 %57
  %59 = load i32, i32* %58, align 4
  %60 = load i32, i32* %4, align 4
  %61 = add nsw i32 %60, 1
  %62 = sext i32 %61 to i64
  %63 = getelementptr inbounds i32, i32* %14, i64 %62
  %64 = load i32, i32* %63, align 4
  %65 = icmp sgt i32 %59, %64
  br i1 %65, label %66, label %84

66:                                               ; preds = %55
  %67 = load i32, i32* %4, align 4
  %68 = sext i32 %67 to i64
  %69 = getelementptr inbounds i32, i32* %14, i64 %68
  %70 = load i32, i32* %69, align 4
  store i32 %70, i32* %6, align 4
  %71 = load i32, i32* %4, align 4
  %72 = add nsw i32 %71, 1
  %73 = sext i32 %72 to i64
  %74 = getelementptr inbounds i32, i32* %14, i64 %73
  %75 = load i32, i32* %74, align 4
  %76 = load i32, i32* %4, align 4
  %77 = sext i32 %76 to i64
  %78 = getelementptr inbounds i32, i32* %14, i64 %77
  store i32 %75, i32* %78, align 4
  %79 = load i32, i32* %6, align 4
  %80 = load i32, i32* %4, align 4
  %81 = add nsw i32 %80, 1
  %82 = sext i32 %81 to i64
  %83 = getelementptr inbounds i32, i32* %14, i64 %82
  store i32 %79, i32* %83, align 4
  br label %84

84:                                               ; preds = %66, %55
  br label %85

85:                                               ; preds = %84
  %86 = load i32, i32* %4, align 4
  %87 = add nsw i32 %86, 1
  store i32 %87, i32* %4, align 4
  br label %50

88:                                               ; preds = %50
  br label %89

89:                                               ; preds = %88
  %90 = load i32, i32* %5, align 4
  %91 = add nsw i32 %90, 1
  store i32 %91, i32* %5, align 4
  br label %44

92:                                               ; preds = %44
  %93 = getelementptr inbounds i32, i32* %14, i64 0
  %94 = load i32, i32* %93, align 16
  %95 = call i32 (i8*, ...) @printf(i8* getelementptr inbounds ([3 x i8], [3 x i8]* @.str.1, i64 0, i64 0), i32 %94)
  store i32 1, i32* %4, align 4
  br label %96

96:                                               ; preds = %106, %92
  %97 = load i32, i32* %4, align 4
  %98 = load i32, i32* %2, align 4
  %99 = icmp slt i32 %97, %98
  br i1 %99, label %100, label %109

100:                                              ; preds = %96
  %101 = load i32, i32* %4, align 4
  %102 = sext i32 %101 to i64
  %103 = getelementptr inbounds i32, i32* %14, i64 %102
  %104 = load i32, i32* %103, align 4
  %105 = call i32 (i8*, ...) @printf(i8* getelementptr inbounds ([4 x i8], [4 x i8]* @.str.2, i64 0, i64 0), i32 %104)
  br label %106

106:                                              ; preds = %100
  %107 = load i32, i32* %4, align 4
  %108 = add nsw i32 %107, 1
  store i32 %108, i32* %4, align 4
  br label %96

109:                                              ; preds = %96
  store i32 0, i32* %5, align 4
  br label %110

110:                                              ; preds = %155, %109
  %111 = load i32, i32* %5, align 4
  %112 = load i32, i32* %3, align 4
  %113 = sub nsw i32 %112, 1
  %114 = icmp slt i32 %111, %113
  br i1 %114, label %115, label %158

115:                                              ; preds = %110
  store i32 0, i32* %4, align 4
  br label %116

116:                                              ; preds = %151, %115
  %117 = load i32, i32* %4, align 4
  %118 = load i32, i32* %3, align 4
  %119 = sub nsw i32 %118, 1
  %120 = icmp slt i32 %117, %119
  br i1 %120, label %121, label %154

121:                                              ; preds = %116
  %122 = load i32, i32* %4, align 4
  %123 = sext i32 %122 to i64
  %124 = getelementptr inbounds i32, i32* %17, i64 %123
  %125 = load i32, i32* %124, align 4
  %126 = load i32, i32* %4, align 4
  %127 = add nsw i32 %126, 1
  %128 = sext i32 %127 to i64
  %129 = getelementptr inbounds i32, i32* %17, i64 %128
  %130 = load i32, i32* %129, align 4
  %131 = icmp sgt i32 %125, %130
  br i1 %131, label %132, label %150

132:                                              ; preds = %121
  %133 = load i32, i32* %4, align 4
  %134 = sext i32 %133 to i64
  %135 = getelementptr inbounds i32, i32* %17, i64 %134
  %136 = load i32, i32* %135, align 4
  store i32 %136, i32* %6, align 4
  %137 = load i32, i32* %4, align 4
  %138 = add nsw i32 %137, 1
  %139 = sext i32 %138 to i64
  %140 = getelementptr inbounds i32, i32* %17, i64 %139
  %141 = load i32, i32* %140, align 4
  %142 = load i32, i32* %4, align 4
  %143 = sext i32 %142 to i64
  %144 = getelementptr inbounds i32, i32* %17, i64 %143
  store i32 %141, i32* %144, align 4
  %145 = load i32, i32* %6, align 4
  %146 = load i32, i32* %4, align 4
  %147 = add nsw i32 %146, 1
  %148 = sext i32 %147 to i64
  %149 = getelementptr inbounds i32, i32* %17, i64 %148
  store i32 %145, i32* %149, align 4
  br label %150

150:                                              ; preds = %132, %121
  br label %151

151:                                              ; preds = %150
  %152 = load i32, i32* %4, align 4
  %153 = add nsw i32 %152, 1
  store i32 %153, i32* %4, align 4
  br label %116

154:                                              ; preds = %116
  br label %155

155:                                              ; preds = %154
  %156 = load i32, i32* %5, align 4
  %157 = add nsw i32 %156, 1
  store i32 %157, i32* %5, align 4
  br label %110

158:                                              ; preds = %110
  store i32 0, i32* %4, align 4
  br label %159

159:                                              ; preds = %169, %158
  %160 = load i32, i32* %4, align 4
  %161 = load i32, i32* %3, align 4
  %162 = icmp slt i32 %160, %161
  br i1 %162, label %163, label %172

163:                                              ; preds = %159
  %164 = load i32, i32* %4, align 4
  %165 = sext i32 %164 to i64
  %166 = getelementptr inbounds i32, i32* %17, i64 %165
  %167 = load i32, i32* %166, align 4
  %168 = call i32 (i8*, ...) @printf(i8* getelementptr inbounds ([4 x i8], [4 x i8]* @.str.2, i64 0, i64 0), i32 %167)
  br label %169

169:                                              ; preds = %163
  %170 = load i32, i32* %4, align 4
  %171 = add nsw i32 %170, 1
  store i32 %171, i32* %4, align 4
  br label %159

172:                                              ; preds = %159
  %173 = load i8*, i8** %7, align 8
  call void @llvm.stackrestore(i8* %173)
  %174 = load i32, i32* %1, align 4
  ret i32 %174
}

declare dso_local i32 @__isoc99_scanf(i8*, ...) #1

; Function Attrs: nounwind
declare i8* @llvm.stacksave() #2

declare dso_local i32 @printf(i8*, ...) #1

; Function Attrs: nounwind
declare void @llvm.stackrestore(i8*) #2


!llvm.module.flags = !{!0}
!llvm.ident = !{!1}

!0 = !{i32 1, !"wchar_size", i32 4}
!1 = !{!"clang version 10.0.0-4ubuntu1 "}
